; ModuleID = 'source-C-CXX/52/180.c'
source_filename = "source-C-CXX/52/180.c"
target datalayout = "e-m:e-p270:32:32-p271:32:32-p272:64:64-i64:64-f80:128-n8:16:32:64-S128"
target triple = "x86_64-pc-linux-gnu"

@.str = private unnamed_addr constant [3 x i8] c"%d\00", align 1
@.str.1 = private unnamed_addr constant [4 x i8] c",%d\00", align 1

; Function Attrs: nofree nounwind sspstrong uwtable
define dso_local void @main() local_unnamed_addr #0 {
  %1 = alloca [300 x i32], align 16
  %2 = alloca [300 x i32], align 16
  %3 = alloca i32, align 4
  %4 = bitcast [300 x i32]* %1 to i8*
  call void @llvm.lifetime.start.p0i8(i64 1200, i8* nonnull %4) #4
  %5 = bitcast [300 x i32]* %2 to i8*
  call void @llvm.lifetime.start.p0i8(i64 1200, i8* nonnull %5) #4
  call void @llvm.memset.p0i8.i64(i8* noundef nonnull align 16 dereferenceable(1200) %5, i8 0, i64 1200, i1 false)
  %6 = bitcast i32* %3 to i8*
  call void @llvm.lifetime.start.p0i8(i64 4, i8* nonnull %6) #4
  %7 = call i32 (i8*, ...) @__isoc99_scanf(i8* getelementptr inbounds ([3 x i8], [3 x i8]* @.str, i64 0, i64 0), i32* nonnull %3)
  %8 = load i32, i32* %3, align 4, !tbaa !5
  %9 = icmp sgt i32 %8, 0
  br i1 %9, label %17, label %49

10:                                               ; preds = %17
  %11 = icmp sgt i32 %22, 1
  br i1 %11, label %12, label %49

12:                                               ; preds = %10
  %13 = zext i32 %22 to i64
  %14 = add nsw i64 %13, -1
  %15 = add nsw i32 %22, -1
  %16 = zext i32 %15 to i64
  br label %25

17:                                               ; preds = %0, %17
  %18 = phi i64 [ %21, %17 ], [ 0, %0 ]
  %19 = getelementptr inbounds [300 x i32], [300 x i32]* %1, i64 0, i64 %18
  %20 = call i32 (i8*, ...) @__isoc99_scanf(i8* getelementptr inbounds ([3 x i8], [3 x i8]* @.str, i64 0, i64 0), i32* nonnull %19)
  %21 = add nuw nsw i64 %18, 1
  %22 = load i32, i32* %3, align 4, !tbaa !5
  %23 = sext i32 %22 to i64
  %24 = icmp slt i64 %21, %23
  br i1 %24, label %17, label %10, !llvm.loop !9

25:                                               ; preds = %12, %46
  %26 = phi i64 [ 0, %12 ], [ %47, %46 ]
  %27 = getelementptr inbounds [300 x i32], [300 x i32]* %2, i64 0, i64 %26
  %28 = load i32, i32* %27, align 4, !tbaa !5
  %29 = icmp eq i32 %28, 0
  br i1 %29, label %30, label %46

30:                                               ; preds = %25
  %31 = getelementptr inbounds [300 x i32], [300 x i32]* %1, i64 0, i64 %26
  br label %32

32:                                               ; preds = %30, %43
  %33 = phi i64 [ %14, %30 ], [ %44, %43 ]
  %34 = getelementptr inbounds [300 x i32], [300 x i32]* %2, i64 0, i64 %33
  %35 = load i32, i32* %34, align 4, !tbaa !5
  %36 = icmp eq i32 %35, 1
  br i1 %36, label %43, label %37

37:                                               ; preds = %32
  %38 = getelementptr inbounds [300 x i32], [300 x i32]* %1, i64 0, i64 %33
  %39 = load i32, i32* %38, align 4, !tbaa !5
  %40 = load i32, i32* %31, align 4, !tbaa !5
  %41 = icmp eq i32 %39, %40
  br i1 %41, label %42, label %43

42:                                               ; preds = %37
  store i32 1, i32* %34, align 4, !tbaa !5
  br label %43

43:                                               ; preds = %42, %37, %32
  %44 = add nsw i64 %33, -1
  %45 = icmp sgt i64 %44, %26
  br i1 %45, label %32, label %46, !llvm.loop !11

46:                                               ; preds = %43, %25
  %47 = add nuw nsw i64 %26, 1
  %48 = icmp eq i64 %47, %16
  br i1 %48, label %49, label %25, !llvm.loop !12

49:                                               ; preds = %46, %0, %10
  %50 = getelementptr inbounds [300 x i32], [300 x i32]* %1, i64 0, i64 0
  %51 = load i32, i32* %50, align 16, !tbaa !5
  %52 = call i32 (i8*, ...) @printf(i8* nonnull dereferenceable(1) getelementptr inbounds ([3 x i8], [3 x i8]* @.str, i64 0, i64 0), i32 %51)
  %53 = load i32, i32* %3, align 4, !tbaa !5
  %54 = icmp sgt i32 %53, 1
  br i1 %54, label %55, label %71

55:                                               ; preds = %49, %66
  %56 = phi i32 [ %67, %66 ], [ %53, %49 ]
  %57 = phi i64 [ %68, %66 ], [ 1, %49 ]
  %58 = getelementptr inbounds [300 x i32], [300 x i32]* %2, i64 0, i64 %57
  %59 = load i32, i32* %58, align 4, !tbaa !5
  %60 = icmp eq i32 %59, 0
  br i1 %60, label %61, label %66

61:                                               ; preds = %55
  %62 = getelementptr inbounds [300 x i32], [300 x i32]* %1, i64 0, i64 %57
  %63 = load i32, i32* %62, align 4, !tbaa !5
  %64 = call i32 (i8*, ...) @printf(i8* nonnull dereferenceable(1) getelementptr inbounds ([4 x i8], [4 x i8]* @.str.1, i64 0, i64 0), i32 %63)
  %65 = load i32, i32* %3, align 4, !tbaa !5
  br label %66

66:                                               ; preds = %55, %61
  %67 = phi i32 [ %56, %55 ], [ %65, %61 ]
  %68 = add nuw nsw i64 %57, 1
  %69 = sext i32 %67 to i64
  %70 = icmp slt i64 %68, %69
  br i1 %70, label %55, label %71, !llvm.loop !13

71:                                               ; preds = %66, %49
  call void @llvm.lifetime.end.p0i8(i64 4, i8* nonnull %6) #4
  call void @llvm.lifetime.end.p0i8(i64 1200, i8* nonnull %5) #4
  call void @llvm.lifetime.end.p0i8(i64 1200, i8* nonnull %4) #4
  ret void
}

; Function Attrs: argmemonly mustprogress nofree nosync nounwind willreturn
declare void @llvm.lifetime.start.p0i8(i64 immarg, i8* nocapture) #1

; Function Attrs: argmemonly mustprogress nofree nounwind willreturn writeonly
declare void @llvm.memset.p0i8.i64(i8* nocapture writeonly, i8, i64, i1 immarg) #2

; Function Attrs: nofree nounwind
declare noundef i32 @__isoc99_scanf(i8* nocapture noundef readonly, ...) local_unnamed_addr #3

; Function Attrs: nofree nounwind
declare noundef i32 @printf(i8* nocapture noundef readonly, ...) local_unnamed_addr #3

; Function Attrs: argmemonly mustprogress nofree nosync nounwind willreturn
declare void @llvm.lifetime.end.p0i8(i64 immarg, i8* nocapture) #1


!llvm.module.flags = !{!0, !1, !2, !3}
!llvm.ident = !{!4}

!0 = !{i32 1, !"wchar_size", i32 4}
!1 = !{i32 7, !"PIC Level", i32 2}
!2 = !{i32 7, !"PIE Level", i32 2}
!3 = !{i32 7, !"uwtable", i32 1}
!4 = !{!"clang version 13.0.0"}
!5 = !{!6, !6, i64 0}
!6 = !{!"int", !7, i64 0}
!7 = !{!"omnipotent char", !8, i64 0}
!8 = !{!"Simple C/C++ TBAA"}
!9 = distinct !{!9, !10}
!10 = !{!"llvm.loop.mustprogress"}
!11 = distinct !{!11, !10}
!12 = distinct !{!12, !10}
!13 = distinct !{!13, !10}
